target datalayout = "e-m:e-p270:32:32-p271:32:32-p272:64:64-i64:64-i128:128-f80:128-n8:16:32:64-S128"
target triple = "x86_64-pc-linux-gnu"

%struct.FT_GlyphRec_ = type { ptr, ptr, i32, %struct.FT_Vector_ }
%struct.FT_Vector_ = type { i64, i64 }
%struct.FT_Matrix_ = type { i64, i64, i64, i64 }
%struct.FT_Size_Metrics_ = type { i16, i16, i64, i64, i64, i64, i64, i64 }
%struct.FT_SvgGlyphRec_ = type { %struct.FT_GlyphRec_, ptr, i64, i32, %struct.FT_Size_Metrics_, i16, i16, i16, %struct.FT_Matrix_, %struct.FT_Vector_ }

; Function Attrs: inlinehint nounwind uwtable
define internal i32 @FT_MulFix_x86_64(i32 noundef %0, i32 noundef %1) #5 {
  %3 = alloca i32, align 4
  %4 = alloca i32, align 4
  %5 = alloca i64, align 8
  %6 = alloca i64, align 8
  store i32 %0, ptr %3, align 4, !tbaa !12
  store i32 %1, ptr %4, align 4, !tbaa !12
  call void @llvm.lifetime.start.p0(i64 8, ptr %5) #6
  call void @llvm.lifetime.start.p0(i64 8, ptr %6) #6
  %7 = load i32, ptr %3, align 4, !tbaa !12
  %8 = sext i32 %7 to i64
  %9 = load i32, ptr %4, align 4, !tbaa !12
  %10 = sext i32 %9 to i64
  %11 = mul nsw i64 %8, %10
  store i64 %11, ptr %5, align 8, !tbaa !133
  %12 = load i64, ptr %5, align 8, !tbaa !133
  %13 = ashr i64 %12, 63
  store i64 %13, ptr %6, align 8, !tbaa !133
  %14 = load i64, ptr %6, align 8, !tbaa !133
  %15 = add nsw i64 32768, %14
  %16 = load i64, ptr %5, align 8, !tbaa !133
  %17 = add nsw i64 %16, %15
  store i64 %17, ptr %5, align 8, !tbaa !133
  %18 = load i64, ptr %5, align 8, !tbaa !133
  %19 = ashr i64 %18, 16
  %20 = trunc i64 %19 to i32
  call void @llvm.lifetime.end.p0(i64 8, ptr %6) #6
  call void @llvm.lifetime.end.p0(i64 8, ptr %5) #6
  ret i32 %20
}

; Function Attrs: nounwind uwtable
define internal void @ft_svg_glyph_transform(ptr noundef %0, ptr noundef %1, ptr noundef %2) #0 {
  %4 = alloca ptr, align 8
  %5 = alloca ptr, align 8
  %6 = alloca ptr, align 8
  %7 = alloca ptr, align 8
  %8 = alloca ptr, align 8
  %9 = alloca ptr, align 8
  %10 = alloca %struct.FT_Matrix_, align 8
  %11 = alloca %struct.FT_Vector_, align 8
  %12 = alloca %struct.FT_Matrix_, align 8
  %13 = alloca %struct.FT_Matrix_, align 8
  %14 = alloca i64, align 8
  %15 = alloca i64, align 8
  store ptr %0, ptr %4, align 8, !tbaa !3
  store ptr %1, ptr %5, align 8, !tbaa !67
  store ptr %2, ptr %6, align 8, !tbaa !69
  call void @llvm.lifetime.start.p0(i64 8, ptr %7) #6
  %16 = load ptr, ptr %4, align 8, !tbaa !3
  store ptr %16, ptr %7, align 8, !tbaa !75
  call void @llvm.lifetime.start.p0(i64 8, ptr %8) #6
  %17 = load ptr, ptr %5, align 8, !tbaa !67
  store ptr %17, ptr %8, align 8, !tbaa !67
  call void @llvm.lifetime.start.p0(i64 8, ptr %9) #6
  %18 = load ptr, ptr %6, align 8, !tbaa !69
  store ptr %18, ptr %9, align 8, !tbaa !69
  call void @llvm.lifetime.start.p0(i64 32, ptr %10) #6
  call void @llvm.lifetime.start.p0(i64 16, ptr %11) #6
  call void @llvm.lifetime.start.p0(i64 32, ptr %12) #6
  call void @llvm.lifetime.start.p0(i64 32, ptr %13) #6
  call void @llvm.lifetime.start.p0(i64 8, ptr %14) #6
  call void @llvm.lifetime.start.p0(i64 8, ptr %15) #6
  %19 = load ptr, ptr %8, align 8, !tbaa !67
  %20 = icmp ne ptr %19, null
  br i1 %20, label %26, label %21

21:                                               ; preds = %3
  %22 = getelementptr inbounds nuw %struct.FT_Matrix_, ptr %10, i32 0, i32 0
  store i64 65536, ptr %22, align 8, !tbaa !108
  %23 = getelementptr inbounds nuw %struct.FT_Matrix_, ptr %10, i32 0, i32 1
  store i64 0, ptr %23, align 8, !tbaa !109
  %24 = getelementptr inbounds nuw %struct.FT_Matrix_, ptr %10, i32 0, i32 2
  store i64 0, ptr %24, align 8, !tbaa !110
  %25 = getelementptr inbounds nuw %struct.FT_Matrix_, ptr %10, i32 0, i32 3
  store i64 65536, ptr %25, align 8, !tbaa !111
  store ptr %10, ptr %8, align 8, !tbaa !67
  br label %26

26:                                               ; preds = %21, %3
  %27 = load ptr, ptr %9, align 8, !tbaa !69
  %28 = icmp ne ptr %27, null
  br i1 %28, label %32, label %29

29:                                               ; preds = %26
  %30 = getelementptr inbounds nuw %struct.FT_Vector_, ptr %11, i32 0, i32 0
  store i64 0, ptr %30, align 8, !tbaa !70
  %31 = getelementptr inbounds nuw %struct.FT_Vector_, ptr %11, i32 0, i32 1
  store i64 0, ptr %31, align 8, !tbaa !71
  store ptr %11, ptr %9, align 8, !tbaa !69
  br label %32

32:                                               ; preds = %29, %26
  %33 = load ptr, ptr %7, align 8, !tbaa !75
  %34 = getelementptr inbounds nuw %struct.FT_SvgGlyphRec_, ptr %33, i32 0, i32 8
  call void @llvm.memcpy.p0.p0.i64(ptr align 8 %12, ptr align 8 %34, i64 32, i1 false), !tbaa.struct !104
  %35 = load ptr, ptr %8, align 8, !tbaa !67
  call void @llvm.memcpy.p0.p0.i64(ptr align 8 %13, ptr align 8 %35, i64 32, i1 false), !tbaa.struct !104
  call void @FT_Matrix_Multiply(ptr noundef %13, ptr noundef %12)
  %36 = load ptr, ptr %8, align 8, !tbaa !67
  %37 = getelementptr inbounds nuw %struct.FT_Matrix_, ptr %36, i32 0, i32 0
  %38 = load i64, ptr %37, align 8, !tbaa !108
  %39 = trunc i64 %38 to i32
  %40 = load ptr, ptr %7, align 8, !tbaa !75
  %41 = getelementptr inbounds nuw %struct.FT_SvgGlyphRec_, ptr %40, i32 0, i32 9
  %42 = getelementptr inbounds nuw %struct.FT_Vector_, ptr %41, i32 0, i32 0
  %43 = load i64, ptr %42, align 8, !tbaa !112
  %44 = trunc i64 %43 to i32
  %45 = call i32 @FT_MulFix_x86_64(i32 noundef %39, i32 noundef %44)
  %46 = sext i32 %45 to i64
  %47 = load ptr, ptr %8, align 8, !tbaa !67
  %48 = getelementptr inbounds nuw %struct.FT_Matrix_, ptr %47, i32 0, i32 1
  %49 = load i64, ptr %48, align 8, !tbaa !109
  %50 = trunc i64 %49 to i32
  %51 = load ptr, ptr %7, align 8, !tbaa !75
  %52 = getelementptr inbounds nuw %struct.FT_SvgGlyphRec_, ptr %51, i32 0, i32 9
  %53 = getelementptr inbounds nuw %struct.FT_Vector_, ptr %52, i32 0, i32 1
  %54 = load i64, ptr %53, align 8, !tbaa !113
  %55 = trunc i64 %54 to i32
  %56 = call i32 @FT_MulFix_x86_64(i32 noundef %50, i32 noundef %55)
  %57 = sext i32 %56 to i64
  %58 = add i64 %46, %57
  %59 = load ptr, ptr %9, align 8, !tbaa !69
  %60 = getelementptr inbounds nuw %struct.FT_Vector_, ptr %59, i32 0, i32 0
  %61 = load i64, ptr %60, align 8, !tbaa !70
  %62 = add i64 %58, %61
  store i64 %62, ptr %14, align 8, !tbaa !91
  %63 = load ptr, ptr %8, align 8, !tbaa !67
  %64 = getelementptr inbounds nuw %struct.FT_Matrix_, ptr %63, i32 0, i32 2
  %65 = load i64, ptr %64, align 8, !tbaa !110
  %66 = trunc i64 %65 to i32
  %67 = load ptr, ptr %7, align 8, !tbaa !75
  %68 = getelementptr inbounds nuw %struct.FT_SvgGlyphRec_, ptr %67, i32 0, i32 9
  %69 = getelementptr inbounds nuw %struct.FT_Vector_, ptr %68, i32 0, i32 0
  %70 = load i64, ptr %69, align 8, !tbaa !112
  %71 = trunc i64 %70 to i32
  %72 = call i32 @FT_MulFix_x86_64(i32 noundef %66, i32 noundef %71)
  %73 = sext i32 %72 to i64
  %74 = load ptr, ptr %8, align 8, !tbaa !67
  %75 = getelementptr inbounds nuw %struct.FT_Matrix_, ptr %74, i32 0, i32 3
  %76 = load i64, ptr %75, align 8, !tbaa !111
  %77 = trunc i64 %76 to i32
  %78 = load ptr, ptr %7, align 8, !tbaa !75
  %79 = getelementptr inbounds nuw %struct.FT_SvgGlyphRec_, ptr %78, i32 0, i32 9
  %80 = getelementptr inbounds nuw %struct.FT_Vector_, ptr %79, i32 0, i32 1
  %81 = load i64, ptr %80, align 8, !tbaa !113
  %82 = trunc i64 %81 to i32
  %83 = call i32 @FT_MulFix_x86_64(i32 noundef %77, i32 noundef %82)
  %84 = sext i32 %83 to i64
  %85 = add i64 %73, %84
  %86 = load ptr, ptr %9, align 8, !tbaa !69
  %87 = getelementptr inbounds nuw %struct.FT_Vector_, ptr %86, i32 0, i32 1
  %88 = load i64, ptr %87, align 8, !tbaa !71
  %89 = add i64 %85, %88
  store i64 %89, ptr %15, align 8, !tbaa !91
  %90 = load i64, ptr %14, align 8, !tbaa !91
  %91 = load ptr, ptr %7, align 8, !tbaa !75
  %92 = getelementptr inbounds nuw %struct.FT_SvgGlyphRec_, ptr %91, i32 0, i32 9
  %93 = getelementptr inbounds nuw %struct.FT_Vector_, ptr %92, i32 0, i32 0
  store i64 %90, ptr %93, align 8, !tbaa !112
  %94 = load i64, ptr %15, align 8, !tbaa !91
  %95 = load ptr, ptr %7, align 8, !tbaa !75
  %96 = getelementptr inbounds nuw %struct.FT_SvgGlyphRec_, ptr %95, i32 0, i32 9
  %97 = getelementptr inbounds nuw %struct.FT_Vector_, ptr %96, i32 0, i32 1
  store i64 %94, ptr %97, align 8, !tbaa !113
  %98 = load ptr, ptr %7, align 8, !tbaa !75
  %99 = getelementptr inbounds nuw %struct.FT_SvgGlyphRec_, ptr %98, i32 0, i32 8
  call void @llvm.memcpy.p0.p0.i64(ptr align 8 %99, ptr align 8 %12, i64 32, i1 false), !tbaa.struct !104
  call void @llvm.lifetime.end.p0(i64 8, ptr %15) #6
  call void @llvm.lifetime.end.p0(i64 8, ptr %14) #6
  call void @llvm.lifetime.end.p0(i64 32, ptr %13) #6
  call void @llvm.lifetime.end.p0(i64 32, ptr %12) #6
  call void @llvm.lifetime.end.p0(i64 16, ptr %11) #6
  call void @llvm.lifetime.end.p0(i64 32, ptr %10) #6
  call void @llvm.lifetime.end.p0(i64 8, ptr %9) #6
  call void @llvm.lifetime.end.p0(i64 8, ptr %8) #6
  call void @llvm.lifetime.end.p0(i64 8, ptr %7) #6
  ret void
}