; Function Attrs: nounwind uwtable
define internal void @ft_svg_glyph_transform(ptr noundef captures(none) %0, ptr noundef readonly %1, ptr noundef readonly %2) #0 {
  %4 = alloca %struct.FT_Matrix_, align 8
  %.sroa.0 = alloca i64, align 8
  %.sroa.4 = alloca i64, align 8
  %5 = alloca %struct.FT_Matrix_, align 8
  %6 = alloca %struct.FT_Matrix_, align 8
  call void @llvm.lifetime.start.p0(i64 32, ptr nonnull %4) #6
  call void @llvm.lifetime.start.p0(i64 8, ptr nonnull %.sroa.0)
  call void @llvm.lifetime.start.p0(i64 8, ptr nonnull %.sroa.4)
  call void @llvm.lifetime.start.p0(i64 32, ptr nonnull %5) #6
  call void @llvm.lifetime.start.p0(i64 32, ptr nonnull %6) #6
  %.not = icmp eq ptr %1, null
  %.0.sroa.gep24 = getelementptr inbounds nuw i8, ptr %1, i64 8
  %.0.sroa.gep27 = getelementptr inbounds nuw i8, ptr %1, i64 16
  %.0.sroa.gep30 = getelementptr inbounds nuw i8, ptr %1, i64 24
  %.021.sroa.gep34 = getelementptr inbounds nuw i8, ptr %2, i64 8
  br i1 %.not, label %7, label %8

7:                                                ; preds = %3
  %.0.sroa.gep31 = getelementptr inbounds nuw i8, ptr %4, i64 24
  %.0.sroa.gep28 = getelementptr inbounds nuw i8, ptr %4, i64 16
  %.0.sroa.gep25 = getelementptr inbounds nuw i8, ptr %4, i64 8
  store i64 65536, ptr %4, align 8, !tbaa !89
  call void @llvm.memset.p0.i64(ptr noundef nonnull align 8 dereferenceable(16) %.0.sroa.gep25, i8 0, i64 16, i1 false)
  store i64 65536, ptr %.0.sroa.gep31, align 8, !tbaa !90
  br label %8

8:                                                ; preds = %7, %3
  %.0.sroa.phi23 = phi ptr [ %.0.sroa.gep24, %3 ], [ %.0.sroa.gep25, %7 ]
  %.0.sroa.phi26 = phi ptr [ %.0.sroa.gep27, %3 ], [ %.0.sroa.gep28, %7 ]
  %.0.sroa.phi29 = phi ptr [ %.0.sroa.gep30, %3 ], [ %.0.sroa.gep31, %7 ]
  %.0 = phi ptr [ %1, %3 ], [ %4, %7 ]
  %.not38 = icmp eq ptr %2, null
  br i1 %.not38, label %9, label %10

9:                                                ; preds = %8
  store i64 0, ptr %.sroa.0, align 8, !tbaa !55
  store i64 0, ptr %.sroa.4, align 8, !tbaa !56
  br label %10

10:                                               ; preds = %9, %8
  %.021.sroa.phi = phi ptr [ %2, %8 ], [ %.sroa.0, %9 ]
  %.021.sroa.phi33 = phi ptr [ %.021.sroa.gep34, %8 ], [ %.sroa.4, %9 ]
  %11 = getelementptr inbounds nuw i8, ptr %0, i64 128
  call void @llvm.memcpy.p0.p0.i64(ptr noundef nonnull align 8 dereferenceable(32) %5, ptr noundef nonnull align 8 dereferenceable(32) %11, i64 32, i1 false), !tbaa.struct !85
  call void @llvm.memcpy.p0.p0.i64(ptr noundef nonnull align 8 dereferenceable(32) %6, ptr noundef nonnull align 8 dereferenceable(32) %.0, i64 32, i1 false), !tbaa.struct !85
  call void @FT_Matrix_Multiply(ptr noundef nonnull %6, ptr noundef nonnull %5) #6
  %12 = load i64, ptr %.0, align 8, !tbaa !89
  %13 = getelementptr inbounds nuw i8, ptr %0, i64 160
  %14 = load i64, ptr %13, align 8, !tbaa !91
  %sext = shl i64 %12, 32
  %15 = ashr exact i64 %sext, 32
  %sext39 = shl i64 %14, 32
  %16 = ashr exact i64 %sext39, 32
  %17 = mul nsw i64 %16, %15
  %18 = ashr i64 %17, 63
  %19 = add nsw i64 %17, 32768
  %20 = add nsw i64 %19, %18
  %21 = shl i64 %20, 16
  %22 = ashr i64 %21, 32
  %23 = load i64, ptr %.0.sroa.phi23, align 8, !tbaa !92
  %24 = getelementptr inbounds nuw i8, ptr %0, i64 168
  %25 = load i64, ptr %24, align 8, !tbaa !93
  %sext41 = shl i64 %23, 32
  %26 = ashr exact i64 %sext41, 32
  %sext42 = shl i64 %25, 32
  %27 = ashr exact i64 %sext42, 32
  %28 = mul nsw i64 %27, %26
  %29 = ashr i64 %28, 63
  %30 = add nsw i64 %28, 32768
  %31 = add nsw i64 %30, %29
  %32 = shl i64 %31, 16
  %33 = ashr i64 %32, 32
  %34 = load i64, ptr %.021.sroa.phi, align 8, !tbaa !55
  %35 = add i64 %22, %34
  %36 = add i64 %35, %33
  %37 = load i64, ptr %.0.sroa.phi26, align 8, !tbaa !94
  %sext44 = shl i64 %37, 32
  %38 = ashr exact i64 %sext44, 32
  %39 = mul nsw i64 %38, %16
  %40 = ashr i64 %39, 63
  %41 = add nsw i64 %39, 32768
  %42 = add nsw i64 %41, %40
  %43 = shl i64 %42, 16
  %44 = ashr i64 %43, 32
  %45 = load i64, ptr %.0.sroa.phi29, align 8, !tbaa !90
  %sext46 = shl i64 %45, 32
  %46 = ashr exact i64 %sext46, 32
  %47 = mul nsw i64 %46, %27
  %48 = ashr i64 %47, 63
  %49 = add nsw i64 %47, 32768
  %50 = add nsw i64 %49, %48
  %51 = shl i64 %50, 16
  %52 = ashr i64 %51, 32
  %53 = load i64, ptr %.021.sroa.phi33, align 8, !tbaa !56
  %54 = add i64 %44, %53
  %55 = add i64 %54, %52
  store i64 %36, ptr %13, align 8, !tbaa !91
  store i64 %55, ptr %24, align 8, !tbaa !93
  call void @llvm.memcpy.p0.p0.i64(ptr noundef nonnull align 8 dereferenceable(32) %11, ptr noundef nonnull align 8 dereferenceable(32) %5, i64 32, i1 false), !tbaa.struct !85
  call void @llvm.lifetime.end.p0(i64 32, ptr nonnull %6) #6
  call void @llvm.lifetime.end.p0(i64 32, ptr nonnull %5) #6
  call void @llvm.lifetime.end.p0(i64 8, ptr nonnull %.sroa.0)
  call void @llvm.lifetime.end.p0(i64 8, ptr nonnull %.sroa.4)
  call void @llvm.lifetime.end.p0(i64 32, ptr nonnull %4) #6
  ret void
}